target datalayout = "e-m:e-p270:32:32-p271:32:32-p272:64:64-i64:64-i128:128-f80:128-n8:16:32:64-S128"
target triple = "x86_64-unknown-linux-gnu"

%"class.v8::IndirectHandleBase" = type { ptr }
%"class.node::Realm" = type { %"class.node::MemoryRetainer", %"class.std::set", %"class.std::set.0", %"class.std::set.0", %"class.std::vector", ptr, ptr, %"class.v8::Global", %"class.v8::Global.11", %"class.v8::Global.11", %"class.v8::Global.11", %"class.v8::Global.13", %"class.v8::Global.11", %"class.v8::Global.11", %"class.v8::Global.11", %"class.v8::Global.13", %"class.v8::Global.11", %"class.v8::Global.11", %"class.v8::Global.11", %"class.v8::Global.11", %"class.v8::Global.11", %"class.v8::Global.11", %"class.v8::Global.11", %"class.v8::Global.11", %"class.v8::Global.11", %"class.v8::Global.11", %"class.v8::Global.11", %"class.v8::Global.11", %"class.v8::Global.11", %"class.v8::Global.11", %"class.v8::Global.11", %"class.v8::Global.11", %"class.v8::Global.11", %"class.v8::Global.11", %"class.v8::Global.11", %"class.v8::Global.11", %"class.v8::Global.11", %"class.v8::Global.11", %"class.v8::Global.11", %"class.v8::Global.11", %"class.v8::Global.11", %"class.v8::Global.11", %"class.v8::Global.11", %"class.v8::Global.11", %"class.v8::Global.13", %"class.v8::Global.11", %"class.v8::Global.11", %"class.v8::Global.11", %"class.v8::Global.13", %"class.v8::Global.13", %"class.v8::Global.13", %"class.v8::Global.13", %"class.v8::Global.13", %"class.v8::Global.13", %"class.v8::Global.11", %"class.v8::Global.11", %"class.v8::Global.11", %"class.v8::Global.11", %"class.v8::Global.11", %"class.v8::Global.11", %"class.v8::Global.11", %"class.v8::Global.11", %"class.v8::Global.11", %"class.v8::Global.11", %"class.v8::Global.11", %"class.v8::Global.11", %"class.v8::Global.11", %"class.v8::Global.11", i32, i8, i64, i64, %"struct.std::array", %"class.node::CleanupQueue" }
%"class.node::MemoryRetainer" = type { ptr }
%"class.std::set" = type { %"class.std::_Rb_tree" }
%"class.std::_Rb_tree" = type { %"struct.std::_Rb_tree<node::node_module *, node::node_module *, std::_Identity<node::node_module *>, std::less<node::node_module *>>::_Rb_tree_impl" }
%"struct.std::_Rb_tree<node::node_module *, node::node_module *, std::_Identity<node::node_module *>, std::less<node::node_module *>>::_Rb_tree_impl" = type { %"struct.std::_Rb_tree_key_compare", %"struct.std::_Rb_tree_header" }
%"struct.std::_Rb_tree_key_compare" = type { %"struct.std::less" }
%"struct.std::less" = type { i8 }
%"struct.std::_Rb_tree_header" = type { %"struct.std::_Rb_tree_node_base", i64 }
%"struct.std::_Rb_tree_node_base" = type { i32, ptr, ptr, ptr }
%"class.std::set.0" = type { %"class.std::_Rb_tree.1" }
%"class.std::_Rb_tree.1" = type { %"struct.std::_Rb_tree<std::__cxx11::basic_string<char>, std::__cxx11::basic_string<char>, std::_Identity<std::__cxx11::basic_string<char>>, std::less<std::__cxx11::basic_string<char>>>::_Rb_tree_impl" }
%"struct.std::_Rb_tree<std::__cxx11::basic_string<char>, std::__cxx11::basic_string<char>, std::_Identity<std::__cxx11::basic_string<char>>, std::less<std::__cxx11::basic_string<char>>>::_Rb_tree_impl" = type { %"struct.std::_Rb_tree_key_compare.5", %"struct.std::_Rb_tree_header" }
%"struct.std::_Rb_tree_key_compare.5" = type { %"struct.std::less.6" }
%"struct.std::less.6" = type { i8 }
%"class.std::vector" = type { %"struct.std::_Vector_base" }
%"struct.std::_Vector_base" = type { %"struct.std::_Vector_base<std::__cxx11::basic_string<char>, std::allocator<std::__cxx11::basic_string<char>>>::_Vector_impl" }
%"struct.std::_Vector_base<std::__cxx11::basic_string<char>, std::allocator<std::__cxx11::basic_string<char>>>::_Vector_impl" = type { %"struct.std::_Vector_base<std::__cxx11::basic_string<char>, std::allocator<std::__cxx11::basic_string<char>>>::_Vector_impl_data" }
%"struct.std::_Vector_base<std::__cxx11::basic_string<char>, std::allocator<std::__cxx11::basic_string<char>>>::_Vector_impl_data" = type { ptr, ptr, ptr }
%"class.v8::Global" = type { %"class.v8::PersistentBase" }
%"class.v8::PersistentBase" = type { %"class.v8::IndirectHandleBase" }
%"class.v8::Global.13" = type { %"class.v8::PersistentBase.14" }
%"class.v8::PersistentBase.14" = type { %"class.v8::IndirectHandleBase" }
%"class.v8::Global.11" = type { %"class.v8::PersistentBase.12" }
%"class.v8::PersistentBase.12" = type { %"class.v8::IndirectHandleBase" }
%"struct.std::array" = type { [12 x %"class.node::BaseObjectPtrImpl"] }
%"class.node::BaseObjectPtrImpl" = type { %union.anon }
%union.anon = type { ptr }
%"class.node::CleanupQueue" = type { %"class.node::MemoryRetainer", %"class.std::unordered_set", i64 }
%"class.std::unordered_set" = type { %"class.std::_Hashtable" }
%"class.std::_Hashtable" = type { ptr, i64, %"struct.std::__detail::_Hash_node_base", i64, %"struct.std::__detail::_Prime_rehash_policy", ptr }
%"struct.std::__detail::_Hash_node_base" = type { ptr }
%"struct.std::__detail::_Prime_rehash_policy" = type { float, i64 }
%"class.v8::Local.294" = type { %"class.v8::LocalBase.295" }
%"class.v8::LocalBase.295" = type { %"class.v8::IndirectHandleBase" }

; Function Attrs: mustprogress nounwind uwtable
define linkonce_odr dso_local noundef ptr @_ZNK4node5Realm7isolateEv(ptr noundef nonnull align 8 dereferenceable(872) %this) #4 comdat align 2 {
entry:
  %this.addr = alloca ptr, align 8
  store ptr %this, ptr %this.addr, align 8
  %this1 = load ptr, ptr %this.addr, align 8
  %isolate_ = getelementptr inbounds %"class.node::Realm", ptr %this1, i32 0, i32 6
  %0 = load ptr, ptr %isolate_, align 8
  ret ptr %0
}

; Function Attrs: mustprogress nounwind uwtable
define dso_local void @_ZN4node14PrincipalRealm46set_primordials_safe_weak_map_prototype_objectEN2v85LocalINS1_6ObjectEEE(ptr noundef nonnull align 8 dereferenceable(872) %this, ptr %value.coerce) unnamed_addr #4 align 2 {
entry:
  %value.addr.i = alloca ptr, align 8
  %value.addr.i.i = alloca ptr, align 8
  %retval.i = alloca ptr, align 8
  %isolate.addr.i17 = alloca ptr, align 8
  %that.addr.i = alloca ptr, align 8
  %slot.addr.i.i = alloca ptr, align 8
  %this.addr.i.i.i = alloca ptr, align 8
  %this.addr.i2.i = alloca ptr, align 8
  %this.addr.i.i13 = alloca ptr, align 8
  %this.addr.i14 = alloca ptr, align 8
  %this.addr.i5.i = alloca ptr, align 8
  %this.addr.i3.i = alloca ptr, align 8
  %this.addr.i.i6 = alloca ptr, align 8
  %this.addr.i7 = alloca ptr, align 8
  %this.addr.i4 = alloca ptr, align 8
  %this.addr.i.i = alloca ptr, align 8
  %this.addr.i = alloca ptr, align 8
  %isolate.addr.i = alloca ptr, align 8
  %other.addr.i = alloca ptr, align 8
  %value = alloca %"class.v8::Local.294", align 8
  %this.addr = alloca ptr, align 8
  %coerce.dive = getelementptr inbounds %"class.v8::Local.294", ptr %value, i32 0, i32 0
  %coerce.dive1 = getelementptr inbounds %"class.v8::LocalBase.295", ptr %coerce.dive, i32 0, i32 0
  %coerce.dive2 = getelementptr inbounds %"class.v8::IndirectHandleBase", ptr %coerce.dive1, i32 0, i32 0
  store ptr %value.coerce, ptr %coerce.dive2, align 8
  store ptr %this, ptr %this.addr, align 8
  %this3 = load ptr, ptr %this.addr, align 8
  %primordials_safe_weak_map_prototype_object_ = getelementptr inbounds %"class.node::Realm", ptr %this3, i32 0, i32 52
  %call = call noundef ptr @_ZNK4node5Realm7isolateEv(ptr noundef nonnull align 8 dereferenceable(872) %this3)
  store ptr %primordials_safe_weak_map_prototype_object_, ptr %this.addr.i, align 8
  store ptr %call, ptr %isolate.addr.i, align 8
  store ptr %value, ptr %other.addr.i, align 8
  %this1.i = load ptr, ptr %this.addr.i, align 8
  store ptr %this1.i, ptr %this.addr.i7, align 8
  %this1.i8 = load ptr, ptr %this.addr.i7, align 8
  store ptr %this1.i8, ptr %this.addr.i.i6, align 8
  %this1.i.i9 = load ptr, ptr %this.addr.i.i6, align 8
  %0 = load ptr, ptr %this1.i.i9, align 8
  %cmp.i.i10 = icmp eq ptr %0, null
  br i1 %cmp.i.i10, label %if.then.i12, label %if.end.i11

if.then.i12:                                      ; preds = %entry
  br label %_ZN2v814PersistentBaseINS_6ObjectEE5ResetEv.exit

if.end.i11:                                       ; preds = %entry
  store ptr %this1.i8, ptr %this.addr.i3.i, align 8
  %this1.i4.i = load ptr, ptr %this.addr.i3.i, align 8
  %1 = load ptr, ptr %this1.i4.i, align 8
  call void @_ZN2v812api_internal13DisposeGlobalEPm(ptr noundef %1) #3
  store ptr %this1.i8, ptr %this.addr.i5.i, align 8
  %this1.i6.i = load ptr, ptr %this.addr.i5.i, align 8
  store ptr null, ptr %this1.i6.i, align 8
  br label %_ZN2v814PersistentBaseINS_6ObjectEE5ResetEv.exit

_ZN2v814PersistentBaseINS_6ObjectEE5ResetEv.exit: ; preds = %if.end.i11, %if.then.i12
  %2 = load ptr, ptr %other.addr.i, align 8
  store ptr %2, ptr %this.addr.i.i, align 8
  %this1.i.i = load ptr, ptr %this.addr.i.i, align 8
  %3 = load ptr, ptr %this1.i.i, align 8
  %cmp.i.i = icmp eq ptr %3, null
  br i1 %cmp.i.i, label %if.then.i, label %if.end.i

if.then.i:                                        ; preds = %_ZN2v814PersistentBaseINS_6ObjectEE5ResetEv.exit
  br label %_ZN2v814PersistentBaseINS_6ObjectEE5ResetIS1_EEvPNS_7IsolateERKNS_5LocalIT_EE.exit

if.end.i:                                         ; preds = %_ZN2v814PersistentBaseINS_6ObjectEE5ResetEv.exit
  %4 = load ptr, ptr %isolate.addr.i, align 8
  %5 = load ptr, ptr %other.addr.i, align 8
  store ptr %5, ptr %this.addr.i14, align 8
  %this1.i15 = load ptr, ptr %this.addr.i14, align 8
  store ptr %this1.i15, ptr %this.addr.i.i13, align 8
  %this1.i.i16 = load ptr, ptr %this.addr.i.i13, align 8
  store ptr %this1.i.i16, ptr %this.addr.i2.i, align 8
  %this1.i3.i = load ptr, ptr %this.addr.i2.i, align 8
  store ptr %this1.i3.i, ptr %this.addr.i.i.i, align 8
  %this1.i.i.i = load ptr, ptr %this.addr.i.i.i, align 8
  %6 = load ptr, ptr %this1.i.i.i, align 8
  store ptr %6, ptr %slot.addr.i.i, align 8
  %7 = load ptr, ptr %slot.addr.i.i, align 8
  store ptr %4, ptr %isolate.addr.i17, align 8
  store ptr %7, ptr %that.addr.i, align 8
  %8 = load ptr, ptr %that.addr.i, align 8
  store ptr %8, ptr %value.addr.i, align 8
  %9 = load ptr, ptr %value.addr.i, align 8
  %10 = ptrtoint ptr %9 to i64
  %cmp.i = icmp eq i64 %10, 0
  br i1 %cmp.i, label %if.then.i19, label %if.end.i18

if.then.i19:                                      ; preds = %if.end.i
  store ptr null, ptr %retval.i, align 8
  br label %_ZN2v814PersistentBaseINS_6ObjectEE3NewEPNS_7IsolateEPS1_.exit

if.end.i18:                                       ; preds = %if.end.i
  %11 = load ptr, ptr %isolate.addr.i17, align 8
  %12 = load ptr, ptr %that.addr.i, align 8
  store ptr %12, ptr %value.addr.i.i, align 8
  %13 = load ptr, ptr %value.addr.i.i, align 8
  %14 = load i64, ptr %13, align 8
  %call2.i = call noundef ptr @_ZN2v812api_internal18GlobalizeReferenceEPNS_8internal7IsolateEm(ptr noundef %11, i64 noundef %14) #3
  store ptr %call2.i, ptr %retval.i, align 8
  br label %_ZN2v814PersistentBaseINS_6ObjectEE3NewEPNS_7IsolateEPS1_.exit

_ZN2v814PersistentBaseINS_6ObjectEE3NewEPNS_7IsolateEPS1_.exit: ; preds = %if.end.i18, %if.then.i19
  %15 = load ptr, ptr %retval.i, align 8
  store ptr %this1.i, ptr %this.addr.i4, align 8
  %this1.i5 = load ptr, ptr %this.addr.i4, align 8
  store ptr %15, ptr %this1.i5, align 8
  br label %_ZN2v814PersistentBaseINS_6ObjectEE5ResetIS1_EEvPNS_7IsolateERKNS_5LocalIT_EE.exit

_ZN2v814PersistentBaseINS_6ObjectEE5ResetIS1_EEvPNS_7IsolateERKNS_5LocalIT_EE.exit: ; preds = %_ZN2v814PersistentBaseINS_6ObjectEE3NewEPNS_7IsolateEPS1_.exit, %if.then.i
  ret void
}